target datalayout = "e-m:e-p270:32:32-p271:32:32-p272:64:64-i64:64-i128:128-f80:128-n8:16:32:64-S128"
target triple = "x86_64-pc-linux-gnu"

%struct.dt_undo_lt_history_t = type { i32, i32, i32, i32, i32 }

; Function Attrs: nounwind uwtable
define void @dt_history_snapshot_undo_lt_history_data_free(ptr noundef %0) #0 {
  %2 = alloca ptr, align 8
  %3 = alloca ptr, align 8
  store ptr %0, ptr %2, align 8, !tbaa !57
  call void @llvm.lifetime.start.p0(i64 8, ptr %3) #7
  %4 = load ptr, ptr %2, align 8, !tbaa !57
  store ptr %4, ptr %3, align 8, !tbaa !58
  %5 = load ptr, ptr %3, align 8, !tbaa !58
  %6 = getelementptr inbounds nuw %struct.dt_undo_lt_history_t, ptr %5, i32 0, i32 0
  %7 = load i32, ptr %6, align 4, !tbaa !60
  %8 = load ptr, ptr %3, align 8, !tbaa !58
  %9 = getelementptr inbounds nuw %struct.dt_undo_lt_history_t, ptr %8, i32 0, i32 3
  %10 = load i32, ptr %9, align 4, !tbaa !62
  call void @dt_history_snapshot_clear(i32 noundef %7, i32 noundef %10)
  %11 = load ptr, ptr %3, align 8, !tbaa !58
  %12 = getelementptr inbounds nuw %struct.dt_undo_lt_history_t, ptr %11, i32 0, i32 1
  %13 = load i32, ptr %12, align 4, !tbaa !63
  %14 = icmp eq i32 %13, 0
  br i1 %14, label %15, label %22

15:                                               ; preds = %1
  %16 = load ptr, ptr %3, align 8, !tbaa !58
  %17 = getelementptr inbounds nuw %struct.dt_undo_lt_history_t, ptr %16, i32 0, i32 0
  %18 = load i32, ptr %17, align 4, !tbaa !60
  %19 = load ptr, ptr %3, align 8, !tbaa !58
  %20 = getelementptr inbounds nuw %struct.dt_undo_lt_history_t, ptr %19, i32 0, i32 1
  %21 = load i32, ptr %20, align 4, !tbaa !63
  call void @dt_history_snapshot_clear(i32 noundef %18, i32 noundef %21)
  br label %22

22:                                               ; preds = %15, %1
  %23 = load ptr, ptr %3, align 8, !tbaa !58
  call void @g_free(ptr noundef %23)
  call void @llvm.lifetime.end.p0(i64 8, ptr %3) #7
  ret void
}