; Function Attrs: nounwind uwtable
define void @dt_history_snapshot_undo_lt_history_data_free(ptr noundef %0) local_unnamed_addr #0 {
  %2 = load i32, ptr %0, align 4, !tbaa !56
  %3 = getelementptr inbounds nuw i8, ptr %0, i64 12
  %4 = load i32, ptr %3, align 4, !tbaa !58
  tail call void @dt_history_snapshot_clear(i32 noundef %2, i32 noundef %4)
  %5 = getelementptr inbounds nuw i8, ptr %0, i64 4
  %6 = load i32, ptr %5, align 4, !tbaa !59
  %7 = icmp eq i32 %6, 0
  br i1 %7, label %8, label %10

8:                                                ; preds = %1
  %9 = load i32, ptr %0, align 4, !tbaa !56
  tail call void @dt_history_snapshot_clear(i32 noundef %9, i32 noundef 0)
  br label %10

10:                                               ; preds = %8, %1
  tail call void @g_free(ptr noundef nonnull %0) #7
  ret void
}